; ModuleID = '43/583.c'
source_filename = "43/583.c"
target datalayout = "e-m:e-p270:32:32-p271:32:32-p272:64:64-i64:64-f80:128-n8:16:32:64-S128"
target triple = "x86_64-pc-linux-gnu"

@.str = private unnamed_addr constant [3 x i8] c"%d\00", align 1
@.str.1 = private unnamed_addr constant [7 x i8] c"%d %d\0A\00", align 1

; Function Attrs: noinline nounwind uwtable
define dso_local void @main() #0 {
  %1 = alloca i32, align 4
  %2 = alloca i32, align 4
  %3 = alloca i32, align 4
  %4 = alloca i32, align 4
  %5 = alloca i32, align 4
  %6 = alloca i32, align 4
  %7 = alloca i32, align 4
  store i32 3, i32* %2, align 4
  %8 = call i32 (i8*, ...) @__isoc99_scanf(i8* getelementptr inbounds ([3 x i8], [3 x i8]* @.str, i64 0, i64 0), i32* %1)
  br label %9

9:                                                ; preds = %81, %0
  %10 = load i32, i32* %2, align 4
  %11 = load i32, i32* %1, align 4
  %12 = sdiv i32 %11, 2
  %13 = icmp sle i32 %10, %12
  br i1 %13, label %14, label %84

14:                                               ; preds = %9
  store i32 1, i32* %6, align 4
  store i32 2, i32* %4, align 4
  br label %15

15:                                               ; preds = %34, %14
  %16 = load i32, i32* %4, align 4
  %17 = load i32, i32* %2, align 4
  %18 = sitofp i32 %17 to double
  %19 = call double @sqrt(double %18) #3
  %20 = fptosi double %19 to i32
  %21 = icmp sle i32 %16, %20
  br i1 %21, label %22, label %37

22:                                               ; preds = %15
  %23 = load i32, i32* %2, align 4
  %24 = load i32, i32* %4, align 4
  %25 = srem i32 %23, %24
  %26 = icmp eq i32 %25, 0
  br i1 %26, label %27, label %30

27:                                               ; preds = %22
  %28 = load i32, i32* %6, align 4
  %29 = mul nsw i32 %28, 0
  store i32 %29, i32* %6, align 4
  br label %33

30:                                               ; preds = %22
  %31 = load i32, i32* %6, align 4
  %32 = mul nsw i32 %31, 1
  store i32 %32, i32* %6, align 4
  br label %33

33:                                               ; preds = %30, %27
  br label %34

34:                                               ; preds = %33
  %35 = load i32, i32* %4, align 4
  %36 = add nsw i32 %35, 1
  store i32 %36, i32* %4, align 4
  br label %15

37:                                               ; preds = %15
  %38 = load i32, i32* %6, align 4
  %39 = icmp eq i32 %38, 1
  br i1 %39, label %40, label %81

40:                                               ; preds = %37
  %41 = load i32, i32* %1, align 4
  %42 = load i32, i32* %2, align 4
  %43 = sub nsw i32 %41, %42
  store i32 %43, i32* %3, align 4
  store i32 1, i32* %7, align 4
  store i32 2, i32* %5, align 4
  br label %44

44:                                               ; preds = %63, %40
  %45 = load i32, i32* %5, align 4
  %46 = load i32, i32* %3, align 4
  %47 = sitofp i32 %46 to double
  %48 = call double @sqrt(double %47) #3
  %49 = fptosi double %48 to i32
  %50 = icmp sle i32 %45, %49
  br i1 %50, label %51, label %66

51:                                               ; preds = %44
  %52 = load i32, i32* %3, align 4
  %53 = load i32, i32* %5, align 4
  %54 = srem i32 %52, %53
  %55 = icmp eq i32 %54, 0
  br i1 %55, label %56, label %59

56:                                               ; preds = %51
  %57 = load i32, i32* %7, align 4
  %58 = mul nsw i32 %57, 0
  store i32 %58, i32* %7, align 4
  br label %62

59:                                               ; preds = %51
  %60 = load i32, i32* %7, align 4
  %61 = mul nsw i32 %60, 1
  store i32 %61, i32* %7, align 4
  br label %62

62:                                               ; preds = %59, %56
  br label %63

63:                                               ; preds = %62
  %64 = load i32, i32* %5, align 4
  %65 = add nsw i32 %64, 1
  store i32 %65, i32* %5, align 4
  br label %44

66:                                               ; preds = %44
  %67 = load i32, i32* %7, align 4
  %68 = icmp eq i32 %67, 1
  br i1 %68, label %69, label %80

69:                                               ; preds = %66
  %70 = load i32, i32* %2, align 4
  %71 = load i32, i32* %3, align 4
  %72 = add nsw i32 %70, %71
  %73 = load i32, i32* %1, align 4
  %74 = icmp eq i32 %72, %73
  br i1 %74, label %75, label %79

75:                                               ; preds = %69
  %76 = load i32, i32* %2, align 4
  %77 = load i32, i32* %3, align 4
  %78 = call i32 (i8*, ...) @printf(i8* getelementptr inbounds ([7 x i8], [7 x i8]* @.str.1, i64 0, i64 0), i32 %76, i32 %77)
  br label %79

79:                                               ; preds = %75, %69
  br label %80

80:                                               ; preds = %79, %66
  br label %81

81:                                               ; preds = %80, %37
  %82 = load i32, i32* %2, align 4
  %83 = add nsw i32 %82, 2
  store i32 %83, i32* %2, align 4
  br label %9

84:                                               ; preds = %9
  ret void
}

declare dso_local i32 @__isoc99_scanf(i8*, ...) #1

; Function Attrs: nounwind
declare dso_local double @sqrt(double) #2

declare dso_local i32 @printf(i8*, ...) #1


!llvm.module.flags = !{!0}
!llvm.ident = !{!1}

!0 = !{i32 1, !"wchar_size", i32 4}
!1 = !{!"clang version 10.0.0-4ubuntu1 "}
